target datalayout = "e-m:e-p270:32:32-p271:32:32-p272:64:64-i64:64-i128:128-f80:128-n8:16:32:64-S128"
target triple = "x86_64-pc-linux-gnu"

; Function Attrs: inlinehint mustprogress nounwind uwtable
define internal void @_ZN13duckdb_snappy12_GLOBAL__N_127ConditionalUnalignedCopy128ILb0EEEvPKcPc(ptr noundef %0, ptr noundef %1) #3 {
  %3 = alloca ptr, align 8
  %4 = alloca ptr, align 8
  store ptr %0, ptr %3, align 8, !tbaa !7
  store ptr %1, ptr %4, align 8, !tbaa !7
  %5 = load ptr, ptr %3, align 8, !tbaa !7
  %6 = load ptr, ptr %4, align 8, !tbaa !7
  call void @_ZN13duckdb_snappy12_GLOBAL__N_115UnalignedCopy64EPKvPv(ptr noundef %5, ptr noundef %6)
  %7 = load ptr, ptr %3, align 8, !tbaa !7
  %8 = getelementptr inbounds i8, ptr %7, i64 8
  %9 = load ptr, ptr %4, align 8, !tbaa !7
  %10 = getelementptr inbounds i8, ptr %9, i64 8
  call void @_ZN13duckdb_snappy12_GLOBAL__N_115UnalignedCopy64EPKvPv(ptr noundef %8, ptr noundef %10)
  ret void
}

; Function Attrs: inlinehint mustprogress nounwind uwtable
define internal noundef ptr @_ZN13duckdb_snappy12_GLOBAL__N_119IncrementalCopySlowEPKcPcS3_(ptr noundef %0, ptr noundef %1, ptr noundef %2) #3 {
  %4 = alloca ptr, align 8
  %5 = alloca ptr, align 8
  %6 = alloca ptr, align 8
  store ptr %0, ptr %4, align 8, !tbaa !7
  store ptr %1, ptr %5, align 8, !tbaa !7
  store ptr %2, ptr %6, align 8, !tbaa !7
  br label %7

7:                                                ; preds = %11, %3
  %8 = load ptr, ptr %5, align 8, !tbaa !7
  %9 = load ptr, ptr %6, align 8, !tbaa !7
  %10 = icmp ult ptr %8, %9
  br i1 %10, label %11, label %17

11:                                               ; preds = %7
  %12 = load ptr, ptr %4, align 8, !tbaa !7
  %13 = getelementptr inbounds nuw i8, ptr %12, i32 1
  store ptr %13, ptr %4, align 8, !tbaa !7
  %14 = load i8, ptr %12, align 1, !tbaa !16
  %15 = load ptr, ptr %5, align 8, !tbaa !7
  %16 = getelementptr inbounds nuw i8, ptr %15, i32 1
  store ptr %16, ptr %5, align 8, !tbaa !7
  store i8 %14, ptr %15, align 1, !tbaa !16
  br label %7, !llvm.loop !220

17:                                               ; preds = %7
  %18 = load ptr, ptr %6, align 8, !tbaa !7
  ret ptr %18
}

; Function Attrs: mustprogress nounwind uwtable
define internal void @_ZN13duckdb_snappy12_GLOBAL__N_115UnalignedCopy64EPKvPv(ptr noundef %0, ptr noundef %1) #0 {
  %3 = alloca ptr, align 8
  %4 = alloca ptr, align 8
  %5 = alloca [8 x i8], align 1
  store ptr %0, ptr %3, align 8, !tbaa !30
  store ptr %1, ptr %4, align 8, !tbaa !30
  call void @llvm.lifetime.start.p0(i64 8, ptr %5) #17
  %6 = getelementptr inbounds [8 x i8], ptr %5, i64 0, i64 0
  %7 = load ptr, ptr %3, align 8, !tbaa !30
  call void @llvm.memcpy.p0.p0.i64(ptr align 1 %6, ptr align 1 %7, i64 8, i1 false)
  %8 = load ptr, ptr %4, align 8, !tbaa !30
  %9 = getelementptr inbounds [8 x i8], ptr %5, i64 0, i64 0
  call void @llvm.memcpy.p0.p0.i64(ptr align 1 %8, ptr align 1 %9, i64 8, i1 false)
  call void @llvm.lifetime.end.p0(i64 8, ptr %5) #17
  ret void
}

; Function Attrs: inlinehint mustprogress uwtable
define internal noundef ptr @_ZN13duckdb_snappy12_GLOBAL__N_115IncrementalCopyEPKcPcS3_S3_(ptr noundef %0, ptr noundef %1, ptr noundef %2, ptr noundef %3) #7 {
  %5 = alloca ptr, align 8
  %6 = alloca ptr, align 8
  %7 = alloca ptr, align 8
  %8 = alloca ptr, align 8
  %9 = alloca ptr, align 8
  %10 = alloca i32, align 4
  %11 = alloca i64, align 8
  %12 = alloca i32, align 4
  %13 = alloca i8, align 1
  %14 = alloca ptr, align 8
  store ptr %0, ptr %6, align 8, !tbaa !7
  store ptr %1, ptr %7, align 8, !tbaa !7
  store ptr %2, ptr %8, align 8, !tbaa !7
  store ptr %3, ptr %9, align 8, !tbaa !7
  call void @llvm.lifetime.start.p0(i64 4, ptr %10) #17
  store i32 8, ptr %10, align 4, !tbaa !12
  call void @llvm.lifetime.start.p0(i64 8, ptr %11) #17
  %15 = load ptr, ptr %7, align 8, !tbaa !7
  %16 = load ptr, ptr %6, align 8, !tbaa !7
  %17 = ptrtoint ptr %15 to i64
  %18 = ptrtoint ptr %16 to i64
  %19 = sub i64 %17, %18
  store i64 %19, ptr %11, align 8, !tbaa !3
  %20 = load i64, ptr %11, align 8, !tbaa !3
  %21 = icmp ult i64 %20, 8
  br i1 %21, label %22, label %62

22:                                               ; preds = %4
  %23 = load ptr, ptr %7, align 8, !tbaa !7
  %24 = load ptr, ptr %9, align 8, !tbaa !7
  %25 = getelementptr inbounds i8, ptr %24, i64 -11
  %26 = icmp ule ptr %23, %25
  %27 = xor i1 %26, true
  %28 = xor i1 %27, true
  %29 = zext i1 %28 to i64
  %30 = call i64 @llvm.expect.i64(i64 %29, i64 1)
  %31 = icmp ne i64 %30, 0
  br i1 %31, label %32, label %56

32:                                               ; preds = %22
  br label %33

33:                                               ; preds = %36, %32
  %34 = load i64, ptr %11, align 8, !tbaa !3
  %35 = icmp ult i64 %34, 8
  br i1 %35, label %36, label %44

36:                                               ; preds = %33
  %37 = load ptr, ptr %6, align 8, !tbaa !7
  %38 = load ptr, ptr %7, align 8, !tbaa !7
  call void @_ZN13duckdb_snappy12_GLOBAL__N_115UnalignedCopy64EPKvPv(ptr noundef %37, ptr noundef %38)
  %39 = load i64, ptr %11, align 8, !tbaa !3
  %40 = load ptr, ptr %7, align 8, !tbaa !7
  %41 = getelementptr inbounds nuw i8, ptr %40, i64 %39
  store ptr %41, ptr %7, align 8, !tbaa !7
  %42 = load i64, ptr %11, align 8, !tbaa !3
  %43 = mul i64 %42, 2
  store i64 %43, ptr %11, align 8, !tbaa !3
  br label %33, !llvm.loop !217

44:                                               ; preds = %33
  %45 = load ptr, ptr %7, align 8, !tbaa !7
  %46 = load ptr, ptr %8, align 8, !tbaa !7
  %47 = icmp uge ptr %45, %46
  %48 = xor i1 %47, true
  %49 = xor i1 %48, true
  %50 = zext i1 %49 to i64
  %51 = call i64 @llvm.expect.i64(i64 %50, i64 1)
  %52 = icmp ne i64 %51, 0
  br i1 %52, label %53, label %55

53:                                               ; preds = %44
  %54 = load ptr, ptr %8, align 8, !tbaa !7
  store ptr %54, ptr %5, align 8
  store i32 1, ptr %12, align 4
  br label %149

55:                                               ; preds = %44
  br label %61

56:                                               ; preds = %22
  %57 = load ptr, ptr %6, align 8, !tbaa !7
  %58 = load ptr, ptr %7, align 8, !tbaa !7
  %59 = load ptr, ptr %8, align 8, !tbaa !7
  %60 = call noundef ptr @_ZN13duckdb_snappy12_GLOBAL__N_119IncrementalCopySlowEPKcPcS3_(ptr noundef %57, ptr noundef %58, ptr noundef %59)
  store ptr %60, ptr %5, align 8
  store i32 1, ptr %12, align 4
  br label %149

61:                                               ; preds = %55
  br label %62

62:                                               ; preds = %61, %4
  call void @llvm.lifetime.start.p0(i64 1, ptr %13) #17
  store i8 0, ptr %13, align 1, !tbaa !48
  %63 = load ptr, ptr %8, align 8, !tbaa !7
  %64 = load ptr, ptr %9, align 8, !tbaa !7
  %65 = getelementptr inbounds i8, ptr %64, i64 -15
  %66 = icmp ule ptr %63, %65
  %67 = xor i1 %66, true
  %68 = xor i1 %67, true
  %69 = zext i1 %68 to i64
  %70 = call i64 @llvm.expect.i64(i64 %69, i64 1)
  %71 = icmp ne i64 %70, 0
  br i1 %71, label %72, label %106

72:                                               ; preds = %62
  %73 = load ptr, ptr %6, align 8, !tbaa !7
  %74 = load ptr, ptr %7, align 8, !tbaa !7
  call void @_ZN13duckdb_snappy12_GLOBAL__N_127ConditionalUnalignedCopy128ILb0EEEvPKcPc(ptr noundef %73, ptr noundef %74)
  %75 = load ptr, ptr %7, align 8, !tbaa !7
  %76 = getelementptr inbounds i8, ptr %75, i64 16
  %77 = load ptr, ptr %8, align 8, !tbaa !7
  %78 = icmp ult ptr %76, %77
  br i1 %78, label %79, label %84

79:                                               ; preds = %72
  %80 = load ptr, ptr %6, align 8, !tbaa !7
  %81 = getelementptr inbounds i8, ptr %80, i64 16
  %82 = load ptr, ptr %7, align 8, !tbaa !7
  %83 = getelementptr inbounds i8, ptr %82, i64 16
  call void @_ZN13duckdb_snappy12_GLOBAL__N_127ConditionalUnalignedCopy128ILb0EEEvPKcPc(ptr noundef %81, ptr noundef %83)
  br label %84

84:                                               ; preds = %79, %72
  %85 = load ptr, ptr %7, align 8, !tbaa !7
  %86 = getelementptr inbounds i8, ptr %85, i64 32
  %87 = load ptr, ptr %8, align 8, !tbaa !7
  %88 = icmp ult ptr %86, %87
  br i1 %88, label %89, label %94

89:                                               ; preds = %84
  %90 = load ptr, ptr %6, align 8, !tbaa !7
  %91 = getelementptr inbounds i8, ptr %90, i64 32
  %92 = load ptr, ptr %7, align 8, !tbaa !7
  %93 = getelementptr inbounds i8, ptr %92, i64 32
  call void @_ZN13duckdb_snappy12_GLOBAL__N_127ConditionalUnalignedCopy128ILb0EEEvPKcPc(ptr noundef %91, ptr noundef %93)
  br label %94

94:                                               ; preds = %89, %84
  %95 = load ptr, ptr %7, align 8, !tbaa !7
  %96 = getelementptr inbounds i8, ptr %95, i64 48
  %97 = load ptr, ptr %8, align 8, !tbaa !7
  %98 = icmp ult ptr %96, %97
  br i1 %98, label %99, label %104

99:                                               ; preds = %94
  %100 = load ptr, ptr %6, align 8, !tbaa !7
  %101 = getelementptr inbounds i8, ptr %100, i64 48
  %102 = load ptr, ptr %7, align 8, !tbaa !7
  %103 = getelementptr inbounds i8, ptr %102, i64 48
  call void @_ZN13duckdb_snappy12_GLOBAL__N_127ConditionalUnalignedCopy128ILb0EEEvPKcPc(ptr noundef %101, ptr noundef %103)
  br label %104

104:                                              ; preds = %99, %94
  %105 = load ptr, ptr %8, align 8, !tbaa !7
  store ptr %105, ptr %5, align 8
  store i32 1, ptr %12, align 4
  br label %148

106:                                              ; preds = %62
  call void @llvm.lifetime.start.p0(i64 8, ptr %14) #17
  %107 = load ptr, ptr %9, align 8, !tbaa !7
  %108 = getelementptr inbounds i8, ptr %107, i64 -16
  store ptr %108, ptr %14, align 8, !tbaa !7
  br label %109

109:                                              ; preds = %117, %106
  %110 = load ptr, ptr %7, align 8, !tbaa !7
  %111 = load ptr, ptr %14, align 8, !tbaa !7
  %112 = icmp ult ptr %110, %111
  br i1 %112, label %114, label %113

113:                                              ; preds = %109
  store i32 4, ptr %12, align 4
  call void @llvm.lifetime.end.p0(i64 8, ptr %14) #17
  br label %122

114:                                              ; preds = %109
  %115 = load ptr, ptr %6, align 8, !tbaa !7
  %116 = load ptr, ptr %7, align 8, !tbaa !7
  call void @_ZN13duckdb_snappy12_GLOBAL__N_127ConditionalUnalignedCopy128ILb0EEEvPKcPc(ptr noundef %115, ptr noundef %116)
  br label %117

117:                                              ; preds = %114
  %118 = load ptr, ptr %7, align 8, !tbaa !7
  %119 = getelementptr inbounds i8, ptr %118, i64 16
  store ptr %119, ptr %7, align 8, !tbaa !7
  %120 = load ptr, ptr %6, align 8, !tbaa !7
  %121 = getelementptr inbounds i8, ptr %120, i64 16
  store ptr %121, ptr %6, align 8, !tbaa !7
  br label %109, !llvm.loop !218

122:                                              ; preds = %113
  %123 = load ptr, ptr %7, align 8, !tbaa !7
  %124 = load ptr, ptr %8, align 8, !tbaa !7
  %125 = icmp uge ptr %123, %124
  br i1 %125, label %126, label %128

126:                                              ; preds = %122
  %127 = load ptr, ptr %8, align 8, !tbaa !7
  store ptr %127, ptr %5, align 8
  store i32 1, ptr %12, align 4
  br label %148

128:                                              ; preds = %122
  %129 = load ptr, ptr %7, align 8, !tbaa !7
  %130 = load ptr, ptr %9, align 8, !tbaa !7
  %131 = getelementptr inbounds i8, ptr %130, i64 -8
  %132 = icmp ule ptr %129, %131
  %133 = zext i1 %132 to i64
  %134 = call i64 @llvm.expect.i64(i64 %133, i64 0)
  %135 = icmp ne i64 %134, 0
  br i1 %135, label %136, label %143

136:                                              ; preds = %128
  %137 = load ptr, ptr %6, align 8, !tbaa !7
  %138 = load ptr, ptr %7, align 8, !tbaa !7
  call void @_ZN13duckdb_snappy12_GLOBAL__N_115UnalignedCopy64EPKvPv(ptr noundef %137, ptr noundef %138)
  %139 = load ptr, ptr %6, align 8, !tbaa !7
  %140 = getelementptr inbounds i8, ptr %139, i64 8
  store ptr %140, ptr %6, align 8, !tbaa !7
  %141 = load ptr, ptr %7, align 8, !tbaa !7
  %142 = getelementptr inbounds i8, ptr %141, i64 8
  store ptr %142, ptr %7, align 8, !tbaa !7
  br label %143

143:                                              ; preds = %136, %128
  %144 = load ptr, ptr %6, align 8, !tbaa !7
  %145 = load ptr, ptr %7, align 8, !tbaa !7
  %146 = load ptr, ptr %8, align 8, !tbaa !7
  %147 = call noundef ptr @_ZN13duckdb_snappy12_GLOBAL__N_119IncrementalCopySlowEPKcPcS3_(ptr noundef %144, ptr noundef %145, ptr noundef %146)
  store ptr %147, ptr %5, align 8
  store i32 1, ptr %12, align 4
  br label %148

148:                                              ; preds = %143, %126, %104
  call void @llvm.lifetime.end.p0(i64 1, ptr %13) #17
  br label %149

149:                                              ; preds = %148, %56, %53
  call void @llvm.lifetime.end.p0(i64 8, ptr %11) #17
  call void @llvm.lifetime.end.p0(i64 4, ptr %10) #17
  %150 = load ptr, ptr %5, align 8
  ret ptr %150
}