; Function Attrs: inlinehint mustprogress nofree norecurse nosync nounwind memory(argmem: readwrite) uwtable
define internal fastcc noundef ptr @_ZN13duckdb_snappy12_GLOBAL__N_115IncrementalCopyEPKcPcS3_S3_(ptr noundef %0, ptr noundef %1, ptr noundef readnone returned captures(address, ret: address, provenance) %2, ptr noundef readnone captures(address) %3) unnamed_addr #22 {
  %5 = ptrtoint ptr %1 to i64
  %6 = ptrtoint ptr %0 to i64
  %7 = sub i64 %5, %6
  %8 = icmp ult i64 %7, 8
  br i1 %8, label %9, label %19

9:                                                ; preds = %4
  %10 = getelementptr inbounds i8, ptr %3, i64 -11
  %.not = icmp ugt ptr %1, %10
  br i1 %.not, label %14, label %.lr.ph, !prof !22

.lr.ph:                                           ; preds = %9, %.lr.ph
  %.05586 = phi i64 [ %12, %.lr.ph ], [ %7, %9 ]
  %.15785 = phi ptr [ %11, %.lr.ph ], [ %1, %9 ]
  %.val = load i64, ptr %0, align 1
  store i64 %.val, ptr %.15785, align 1
  %11 = getelementptr inbounds nuw i8, ptr %.15785, i64 %.05586
  %12 = shl nuw nsw i64 %.05586, 1
  %13 = icmp ult i64 %.05586, 4
  br i1 %13, label %.lr.ph, label %._crit_edge, !llvm.loop !135

._crit_edge:                                      ; preds = %.lr.ph
  %.not67 = icmp ult ptr %11, %2
  br i1 %.not67, label %19, label %_ZN13duckdb_snappy12_GLOBAL__N_119IncrementalCopySlowEPKcPcS3_.exit, !prof !22

14:                                               ; preds = %9
  %15 = icmp ult ptr %1, %2
  br i1 %15, label %.lr.ph.i, label %_ZN13duckdb_snappy12_GLOBAL__N_119IncrementalCopySlowEPKcPcS3_.exit

.lr.ph.i:                                         ; preds = %14, %.lr.ph.i
  %.08.i = phi ptr [ %16, %.lr.ph.i ], [ %0, %14 ]
  %.057.i = phi ptr [ %18, %.lr.ph.i ], [ %1, %14 ]
  %16 = getelementptr inbounds nuw i8, ptr %.08.i, i64 1
  %17 = load i8, ptr %.08.i, align 1, !tbaa !3
  %18 = getelementptr inbounds nuw i8, ptr %.057.i, i64 1
  store i8 %17, ptr %.057.i, align 1, !tbaa !3
  %exitcond.not.i = icmp eq ptr %18, %2
  br i1 %exitcond.not.i, label %_ZN13duckdb_snappy12_GLOBAL__N_119IncrementalCopySlowEPKcPcS3_.exit, label %.lr.ph.i, !llvm.loop !136

19:                                               ; preds = %._crit_edge, %4
  %.056 = phi ptr [ %11, %._crit_edge ], [ %1, %4 ]
  %20 = getelementptr inbounds i8, ptr %3, i64 -15
  %.not68 = icmp ugt ptr %2, %20
  br i1 %.not68, label %44, label %21, !prof !22

21:                                               ; preds = %19
  %.val4.i = load i64, ptr %0, align 1
  store i64 %.val4.i, ptr %.056, align 1
  %22 = getelementptr inbounds nuw i8, ptr %0, i64 8
  %23 = getelementptr inbounds nuw i8, ptr %.056, i64 8
  %.val.i = load i64, ptr %22, align 1
  store i64 %.val.i, ptr %23, align 1
  %24 = getelementptr inbounds nuw i8, ptr %.056, i64 16
  %25 = icmp ult ptr %24, %2
  br i1 %25, label %26, label %30

26:                                               ; preds = %21
  %27 = getelementptr inbounds nuw i8, ptr %0, i64 16
  %.val4.i71 = load i64, ptr %27, align 1
  store i64 %.val4.i71, ptr %24, align 1
  %28 = getelementptr inbounds nuw i8, ptr %0, i64 24
  %29 = getelementptr inbounds nuw i8, ptr %.056, i64 24
  %.val.i72 = load i64, ptr %28, align 1
  store i64 %.val.i72, ptr %29, align 1
  br label %30

30:                                               ; preds = %26, %21
  %31 = getelementptr inbounds nuw i8, ptr %.056, i64 32
  %32 = icmp ult ptr %31, %2
  br i1 %32, label %33, label %37

33:                                               ; preds = %30
  %34 = getelementptr inbounds nuw i8, ptr %0, i64 32
  %.val4.i73 = load i64, ptr %34, align 1
  store i64 %.val4.i73, ptr %31, align 1
  %35 = getelementptr inbounds nuw i8, ptr %0, i64 40
  %36 = getelementptr inbounds nuw i8, ptr %.056, i64 40
  %.val.i74 = load i64, ptr %35, align 1
  store i64 %.val.i74, ptr %36, align 1
  br label %37

37:                                               ; preds = %33, %30
  %38 = getelementptr inbounds nuw i8, ptr %.056, i64 48
  %39 = icmp ult ptr %38, %2
  br i1 %39, label %40, label %_ZN13duckdb_snappy12_GLOBAL__N_119IncrementalCopySlowEPKcPcS3_.exit

40:                                               ; preds = %37
  %41 = getelementptr inbounds nuw i8, ptr %0, i64 48
  %.val4.i75 = load i64, ptr %41, align 1
  store i64 %.val4.i75, ptr %38, align 1
  %42 = getelementptr inbounds nuw i8, ptr %0, i64 56
  %43 = getelementptr inbounds nuw i8, ptr %.056, i64 56
  %.val.i76 = load i64, ptr %42, align 1
  store i64 %.val.i76, ptr %43, align 1
  br label %_ZN13duckdb_snappy12_GLOBAL__N_119IncrementalCopySlowEPKcPcS3_.exit

44:                                               ; preds = %19
  %45 = getelementptr inbounds i8, ptr %3, i64 -16
  %46 = icmp ult ptr %.056, %45
  br i1 %46, label %.lr.ph90, label %._crit_edge91

._crit_edge91:                                    ; preds = %.lr.ph90, %44
  %.2.lcssa = phi ptr [ %.056, %44 ], [ %49, %.lr.ph90 ]
  %.053.lcssa = phi ptr [ %0, %44 ], [ %50, %.lr.ph90 ]
  %.not69 = icmp ult ptr %.2.lcssa, %2
  br i1 %.not69, label %52, label %_ZN13duckdb_snappy12_GLOBAL__N_119IncrementalCopySlowEPKcPcS3_.exit

.lr.ph90:                                         ; preds = %44, %.lr.ph90
  %.05388 = phi ptr [ %50, %.lr.ph90 ], [ %0, %44 ]
  %.287 = phi ptr [ %49, %.lr.ph90 ], [ %.056, %44 ]
  %.val4.i77 = load i64, ptr %.05388, align 1
  store i64 %.val4.i77, ptr %.287, align 1
  %47 = getelementptr inbounds nuw i8, ptr %.05388, i64 8
  %48 = getelementptr inbounds nuw i8, ptr %.287, i64 8
  %.val.i78 = load i64, ptr %47, align 1
  store i64 %.val.i78, ptr %48, align 1
  %49 = getelementptr inbounds nuw i8, ptr %.287, i64 16
  %50 = getelementptr inbounds nuw i8, ptr %.05388, i64 16
  %51 = icmp ult ptr %49, %45
  br i1 %51, label %.lr.ph90, label %._crit_edge91, !llvm.loop !138

52:                                               ; preds = %._crit_edge91
  %53 = getelementptr inbounds i8, ptr %3, i64 -8
  %.not70 = icmp ugt ptr %.2.lcssa, %53
  br i1 %.not70, label %57, label %54, !prof !19

54:                                               ; preds = %52
  %.053.val = load i64, ptr %.053.lcssa, align 1
  store i64 %.053.val, ptr %.2.lcssa, align 1
  %55 = getelementptr inbounds nuw i8, ptr %.053.lcssa, i64 8
  %56 = getelementptr inbounds nuw i8, ptr %.2.lcssa, i64 8
  br label %57

57:                                               ; preds = %54, %52
  %.3 = phi ptr [ %56, %54 ], [ %.2.lcssa, %52 ]
  %.154 = phi ptr [ %55, %54 ], [ %.053.lcssa, %52 ]
  %58 = icmp ult ptr %.3, %2
  br i1 %58, label %.lr.ph.i79, label %_ZN13duckdb_snappy12_GLOBAL__N_119IncrementalCopySlowEPKcPcS3_.exit

.lr.ph.i79:                                       ; preds = %57, %.lr.ph.i79
  %.08.i80 = phi ptr [ %59, %.lr.ph.i79 ], [ %.154, %57 ]
  %.057.i81 = phi ptr [ %61, %.lr.ph.i79 ], [ %.3, %57 ]
  %59 = getelementptr inbounds nuw i8, ptr %.08.i80, i64 1
  %60 = load i8, ptr %.08.i80, align 1, !tbaa !3
  %61 = getelementptr inbounds nuw i8, ptr %.057.i81, i64 1
  store i8 %60, ptr %.057.i81, align 1, !tbaa !3
  %exitcond.not.i82 = icmp eq ptr %61, %2
  br i1 %exitcond.not.i82, label %_ZN13duckdb_snappy12_GLOBAL__N_119IncrementalCopySlowEPKcPcS3_.exit, label %.lr.ph.i79, !llvm.loop !136

_ZN13duckdb_snappy12_GLOBAL__N_119IncrementalCopySlowEPKcPcS3_.exit: ; preds = %.lr.ph.i79, %.lr.ph.i, %57, %14, %40, %37, %._crit_edge91, %._crit_edge
  ret ptr %2
}